target datalayout = "e-m:e-p270:32:32-p271:32:32-p272:64:64-i64:64-i128:128-f80:128-n8:16:32:64-S128"
target triple = "x86_64-pc-linux-gnu"

%struct.IDAMemRec = type { ptr, double, ptr, ptr, i32, double, double, ptr, i32, i32, ptr, ptr, i32, i32, i32, ptr, ptr, i32, i32, double, double, ptr, i32, i32, i32, i32, ptr, ptr, i32, ptr, ptr, ptr, i32, double, i32, i32, double, ptr, ptr, ptr, i32, ptr, ptr, i32, i32, i32, double, ptr, ptr, ptr, [6 x ptr], [6 x double], [6 x double], [6 x double], [6 x double], [6 x double], ptr, ptr, ptr, ptr, ptr, ptr, ptr, ptr, ptr, ptr, ptr, ptr, ptr, ptr, ptr, ptr, ptr, [6 x ptr], ptr, ptr, ptr, ptr, [6 x ptr], ptr, ptr, ptr, ptr, ptr, ptr, ptr, ptr, ptr, ptr, ptr, ptr, ptr, ptr, ptr, ptr, [6 x ptr], ptr, ptr, ptr, ptr, ptr, double, ptr, ptr, i32, i32, i32, i32, i32, i32, i32, i32, double, double, double, i32, double, i32, i32, i32, i32, i32, double, double, double, double, double, double, double, double, double, double, double, double, double, double, double, double, double, i32, i32, i32, i32, i64, double, double, double, double, double, double, double, double, double, i64, i64, i64, i64, i64, i64, i64, i64, i64, i64, i64, i64, i64, i64, i64, i64, i64, i64, i64, i64, i64, i64, i64, i64, i64, i64, double, i32, i32, i32, i32, i32, i32, i32, i32, i32, i32, i32, i32, i32, ptr, i32, ptr, i32, ptr, i32, ptr, ptr, ptr, ptr, ptr, ptr, i32, i32, ptr, ptr, ptr, ptr, ptr, ptr, ptr, double, i32, i32, ptr, i32, ptr, ptr, double, double, double, ptr, ptr, ptr, double, double, i32, i32, i64, ptr, i32, ptr, [5 x double], ptr, ptr, i32, ptr, i32 }

@.str = private unnamed_addr constant [111 x i8] c"generated/home/dtcxzyw/WorkSpace/Projects/compilers/llvm-opt-benchmark/bench/sundials/sundials/src/idas/idas.c\00", align 1
@.str.3 = private unnamed_addr constant [24 x i8] c"ida_mem = NULL illegal.\00", align 1
@.str.20 = private unnamed_addr constant [52 x i8] c"Illegal attempt to call before calling IDASensInit.\00", align 1
@__func__.IDASensSStolerances = private unnamed_addr constant [20 x i8] c"IDASensSStolerances\00", align 1
@.str.22 = private unnamed_addr constant [19 x i8] c"rtolS < 0 illegal.\00", align 1
@.str.23 = private unnamed_addr constant [22 x i8] c"atolS = NULL illegal.\00", align 1
@.str.24 = private unnamed_addr constant [43 x i8] c"atolS has negative component(s) (illegal).\00", align 1

; Function Attrs: nounwind uwtable
define i32 @IDASensSStolerances(ptr noundef %0, double noundef %1, ptr noundef %2) #0 {
  %4 = alloca i32, align 4
  %5 = alloca ptr, align 8
  %6 = alloca double, align 8
  %7 = alloca ptr, align 8
  %8 = alloca ptr, align 8
  %9 = alloca i32, align 4
  %10 = alloca i32, align 4
  store ptr %0, ptr %5, align 8, !tbaa !126
  store double %1, ptr %6, align 8, !tbaa !123
  store ptr %2, ptr %7, align 8, !tbaa !223
  call void @llvm.lifetime.start.p0(i64 8, ptr %8) #10
  call void @llvm.lifetime.start.p0(i64 4, ptr %9) #10
  %11 = load ptr, ptr %5, align 8, !tbaa !126
  %12 = icmp eq ptr %11, null
  br i1 %12, label %13, label %14

13:                                               ; preds = %3
  call void (ptr, i32, i32, ptr, ptr, ptr, ...) @IDAProcessError(ptr noundef null, i32 noundef -20, i32 noundef 1681, ptr noundef @__func__.IDASensSStolerances, ptr noundef @.str, ptr noundef @.str.3)
  store i32 -20, ptr %4, align 4
  store i32 1, ptr %10, align 4
  br label %127

14:                                               ; preds = %3
  %15 = load ptr, ptr %5, align 8, !tbaa !126
  store ptr %15, ptr %8, align 8, !tbaa !8
  %16 = load ptr, ptr %8, align 8, !tbaa !8
  %17 = getelementptr inbounds nuw %struct.IDAMemRec, ptr %16, i32 0, i32 189
  %18 = load i32, ptr %17, align 4, !tbaa !95
  %19 = icmp eq i32 %18, 0
  br i1 %19, label %20, label %22

20:                                               ; preds = %14
  %21 = load ptr, ptr %8, align 8, !tbaa !8
  call void (ptr, i32, i32, ptr, ptr, ptr, ...) @IDAProcessError(ptr noundef %21, i32 noundef -40, i32 noundef 1690, ptr noundef @__func__.IDASensSStolerances, ptr noundef @.str, ptr noundef @.str.20)
  store i32 -40, ptr %4, align 4
  store i32 1, ptr %10, align 4
  br label %127

22:                                               ; preds = %14
  %23 = load double, ptr %6, align 8, !tbaa !123
  %24 = fcmp olt double %23, 0.000000e+00
  br i1 %24, label %25, label %27

25:                                               ; preds = %22
  %26 = load ptr, ptr %8, align 8, !tbaa !8
  call void (ptr, i32, i32, ptr, ptr, ptr, ...) @IDAProcessError(ptr noundef %26, i32 noundef -22, i32 noundef 1699, ptr noundef @__func__.IDASensSStolerances, ptr noundef @.str, ptr noundef @.str.22)
  store i32 -22, ptr %4, align 4
  store i32 1, ptr %10, align 4
  br label %127

27:                                               ; preds = %22
  %28 = load ptr, ptr %7, align 8, !tbaa !223
  %29 = icmp eq ptr %28, null
  br i1 %29, label %30, label %32

30:                                               ; preds = %27
  %31 = load ptr, ptr %8, align 8, !tbaa !8
  call void (ptr, i32, i32, ptr, ptr, ptr, ...) @IDAProcessError(ptr noundef %31, i32 noundef -22, i32 noundef 1706, ptr noundef @__func__.IDASensSStolerances, ptr noundef @.str, ptr noundef @.str.23)
  store i32 -22, ptr %4, align 4
  store i32 1, ptr %10, align 4
  br label %127

32:                                               ; preds = %27
  store i32 0, ptr %9, align 4, !tbaa !114
  br label %33

33:                                               ; preds = %49, %32
  %34 = load i32, ptr %9, align 4, !tbaa !114
  %35 = load ptr, ptr %8, align 8, !tbaa !8
  %36 = getelementptr inbounds nuw %struct.IDAMemRec, ptr %35, i32 0, i32 24
  %37 = load i32, ptr %36, align 8, !tbaa !203
  %38 = icmp slt i32 %34, %37
  br i1 %38, label %39, label %52

39:                                               ; preds = %33
  %40 = load ptr, ptr %7, align 8, !tbaa !223
  %41 = load i32, ptr %9, align 4, !tbaa !114
  %42 = sext i32 %41 to i64
  %43 = getelementptr inbounds double, ptr %40, i64 %42
  %44 = load double, ptr %43, align 8, !tbaa !123
  %45 = fcmp olt double %44, 0.000000e+00
  br i1 %45, label %46, label %48

46:                                               ; preds = %39
  %47 = load ptr, ptr %8, align 8, !tbaa !8
  call void (ptr, i32, i32, ptr, ptr, ptr, ...) @IDAProcessError(ptr noundef %47, i32 noundef -22, i32 noundef 1715, ptr noundef @__func__.IDASensSStolerances, ptr noundef @.str, ptr noundef @.str.24)
  store i32 -22, ptr %4, align 4
  store i32 1, ptr %10, align 4
  br label %127

48:                                               ; preds = %39
  br label %49

49:                                               ; preds = %48
  %50 = load i32, ptr %9, align 4, !tbaa !114
  %51 = add nsw i32 %50, 1
  store i32 %51, ptr %9, align 4, !tbaa !114
  br label %33

52:                                               ; preds = %33
  %53 = load ptr, ptr %8, align 8, !tbaa !8
  %54 = getelementptr inbounds nuw %struct.IDAMemRec, ptr %53, i32 0, i32 35
  store i32 1, ptr %54, align 4, !tbaa !73
  %55 = load double, ptr %6, align 8, !tbaa !123
  %56 = load ptr, ptr %8, align 8, !tbaa !8
  %57 = getelementptr inbounds nuw %struct.IDAMemRec, ptr %56, i32 0, i32 36
  store double %55, ptr %57, align 8, !tbaa !224
  %58 = load ptr, ptr %8, align 8, !tbaa !8
  %59 = getelementptr inbounds nuw %struct.IDAMemRec, ptr %58, i32 0, i32 188
  %60 = load i32, ptr %59, align 8, !tbaa !94
  %61 = icmp ne i32 %60, 0
  br i1 %61, label %91, label %62

62:                                               ; preds = %52
  %63 = load ptr, ptr %8, align 8, !tbaa !8
  %64 = getelementptr inbounds nuw %struct.IDAMemRec, ptr %63, i32 0, i32 37
  store ptr null, ptr %64, align 8, !tbaa !222
  %65 = load ptr, ptr %8, align 8, !tbaa !8
  %66 = getelementptr inbounds nuw %struct.IDAMemRec, ptr %65, i32 0, i32 24
  %67 = load i32, ptr %66, align 8, !tbaa !203
  %68 = sext i32 %67 to i64
  %69 = mul i64 %68, 8
  %70 = call noalias ptr @malloc(i64 noundef %69) #11
  %71 = load ptr, ptr %8, align 8, !tbaa !8
  %72 = getelementptr inbounds nuw %struct.IDAMemRec, ptr %71, i32 0, i32 37
  store ptr %70, ptr %72, align 8, !tbaa !222
  %73 = load ptr, ptr %8, align 8, !tbaa !8
  %74 = getelementptr inbounds nuw %struct.IDAMemRec, ptr %73, i32 0, i32 24
  %75 = load i32, ptr %74, align 8, !tbaa !203
  %76 = sext i32 %75 to i64
  %77 = mul i64 %76, 4
  %78 = call noalias ptr @malloc(i64 noundef %77) #11
  %79 = load ptr, ptr %8, align 8, !tbaa !8
  %80 = getelementptr inbounds nuw %struct.IDAMemRec, ptr %79, i32 0, i32 39
  store ptr %78, ptr %80, align 8, !tbaa !74
  %81 = load ptr, ptr %8, align 8, !tbaa !8
  %82 = getelementptr inbounds nuw %struct.IDAMemRec, ptr %81, i32 0, i32 24
  %83 = load i32, ptr %82, align 8, !tbaa !203
  %84 = sext i32 %83 to i64
  %85 = load ptr, ptr %8, align 8, !tbaa !8
  %86 = getelementptr inbounds nuw %struct.IDAMemRec, ptr %85, i32 0, i32 177
  %87 = load i64, ptr %86, align 8, !tbaa !85
  %88 = add nsw i64 %87, %84
  store i64 %88, ptr %86, align 8, !tbaa !85
  %89 = load ptr, ptr %8, align 8, !tbaa !8
  %90 = getelementptr inbounds nuw %struct.IDAMemRec, ptr %89, i32 0, i32 188
  store i32 1, ptr %90, align 8, !tbaa !94
  br label %91

91:                                               ; preds = %62, %52
  store i32 0, ptr %9, align 4, !tbaa !114
  br label %92

92:                                               ; preds = %123, %91
  %93 = load i32, ptr %9, align 4, !tbaa !114
  %94 = load ptr, ptr %8, align 8, !tbaa !8
  %95 = getelementptr inbounds nuw %struct.IDAMemRec, ptr %94, i32 0, i32 24
  %96 = load i32, ptr %95, align 8, !tbaa !203
  %97 = icmp slt i32 %93, %96
  br i1 %97, label %98, label %126

98:                                               ; preds = %92
  %99 = load ptr, ptr %7, align 8, !tbaa !223
  %100 = load i32, ptr %9, align 4, !tbaa !114
  %101 = sext i32 %100 to i64
  %102 = getelementptr inbounds double, ptr %99, i64 %101
  %103 = load double, ptr %102, align 8, !tbaa !123
  %104 = load ptr, ptr %8, align 8, !tbaa !8
  %105 = getelementptr inbounds nuw %struct.IDAMemRec, ptr %104, i32 0, i32 37
  %106 = load ptr, ptr %105, align 8, !tbaa !222
  %107 = load i32, ptr %9, align 4, !tbaa !114
  %108 = sext i32 %107 to i64
  %109 = getelementptr inbounds double, ptr %106, i64 %108
  store double %103, ptr %109, align 8, !tbaa !123
  %110 = load ptr, ptr %7, align 8, !tbaa !223
  %111 = load i32, ptr %9, align 4, !tbaa !114
  %112 = sext i32 %111 to i64
  %113 = getelementptr inbounds double, ptr %110, i64 %112
  %114 = load double, ptr %113, align 8, !tbaa !123
  %115 = fcmp oeq double %114, 0.000000e+00
  %116 = zext i1 %115 to i32
  %117 = load ptr, ptr %8, align 8, !tbaa !8
  %118 = getelementptr inbounds nuw %struct.IDAMemRec, ptr %117, i32 0, i32 39
  %119 = load ptr, ptr %118, align 8, !tbaa !74
  %120 = load i32, ptr %9, align 4, !tbaa !114
  %121 = sext i32 %120 to i64
  %122 = getelementptr inbounds i32, ptr %119, i64 %121
  store i32 %116, ptr %122, align 4, !tbaa !114
  br label %123

123:                                              ; preds = %98
  %124 = load i32, ptr %9, align 4, !tbaa !114
  %125 = add nsw i32 %124, 1
  store i32 %125, ptr %9, align 4, !tbaa !114
  br label %92

126:                                              ; preds = %92
  store i32 0, ptr %4, align 4
  store i32 1, ptr %10, align 4
  br label %127

127:                                              ; preds = %126, %46, %30, %25, %20, %13
  call void @llvm.lifetime.end.p0(i64 4, ptr %9) #10
  call void @llvm.lifetime.end.p0(i64 8, ptr %8) #10
  %128 = load i32, ptr %4, align 4
  ret i32 %128
}