; Function Attrs: nounwind uwtable
define range(i32 -40, 1) i32 @IDASensSStolerances(ptr noundef captures(address_is_null) %0, double noundef %1, ptr noundef readonly captures(address_is_null) %2) local_unnamed_addr #0 {
  %4 = icmp eq ptr %0, null
  br i1 %4, label %5, label %6

5:                                                ; preds = %3
  tail call void (ptr, i32, i32, ptr, ptr, ptr, ...) @IDAProcessError(ptr noundef null, i32 noundef -20, i32 noundef 1681, ptr noundef nonnull @__func__.IDASensSStolerances, ptr noundef nonnull @.str, ptr noundef nonnull @.str.3)
  br label %.loopexit

6:                                                ; preds = %3
  %7 = getelementptr inbounds nuw i8, ptr %0, i64 1716
  %8 = load i32, ptr %7, align 4, !tbaa !185
  %9 = icmp eq i32 %8, 0
  br i1 %9, label %10, label %11

10:                                               ; preds = %6
  tail call void (ptr, i32, i32, ptr, ptr, ptr, ...) @IDAProcessError(ptr noundef nonnull %0, i32 noundef -40, i32 noundef 1690, ptr noundef nonnull @__func__.IDASensSStolerances, ptr noundef nonnull @.str, ptr noundef nonnull @.str.20)
  br label %.loopexit

11:                                               ; preds = %6
  %12 = fcmp olt double %1, 0.000000e+00
  br i1 %12, label %13, label %14

13:                                               ; preds = %11
  tail call void (ptr, i32, i32, ptr, ptr, ptr, ...) @IDAProcessError(ptr noundef nonnull %0, i32 noundef -22, i32 noundef 1699, ptr noundef nonnull @__func__.IDASensSStolerances, ptr noundef nonnull @.str, ptr noundef nonnull @.str.22)
  br label %.loopexit

14:                                               ; preds = %11
  %15 = icmp eq ptr %2, null
  br i1 %15, label %19, label %.preheader

.preheader:                                       ; preds = %14
  %16 = getelementptr inbounds nuw i8, ptr %0, i64 160
  %17 = load i32, ptr %16, align 8, !tbaa !167
  %18 = icmp sgt i32 %17, 0
  br i1 %18, label %.lr.ph.preheader, label %._crit_edge

.lr.ph.preheader:                                 ; preds = %.preheader
  %wide.trip.count = zext nneg i32 %17 to i64
  br label %.lr.ph

19:                                               ; preds = %14
  tail call void (ptr, i32, i32, ptr, ptr, ptr, ...) @IDAProcessError(ptr noundef nonnull %0, i32 noundef -22, i32 noundef 1706, ptr noundef nonnull @__func__.IDASensSStolerances, ptr noundef nonnull @.str, ptr noundef nonnull @.str.23)
  br label %.loopexit

20:                                               ; preds = %.lr.ph
  %indvars.iv.next = add nuw nsw i64 %indvars.iv, 1
  %exitcond.not = icmp eq i64 %indvars.iv.next, %wide.trip.count
  br i1 %exitcond.not, label %._crit_edge, label %.lr.ph

.lr.ph:                                           ; preds = %.lr.ph.preheader, %20
  %indvars.iv = phi i64 [ 0, %.lr.ph.preheader ], [ %indvars.iv.next, %20 ]
  %21 = getelementptr inbounds nuw double, ptr %2, i64 %indvars.iv
  %22 = load double, ptr %21, align 8, !tbaa !87
  %23 = fcmp olt double %22, 0.000000e+00
  br i1 %23, label %24, label %20

24:                                               ; preds = %.lr.ph
  tail call void (ptr, i32, i32, ptr, ptr, ptr, ...) @IDAProcessError(ptr noundef nonnull %0, i32 noundef -22, i32 noundef 1715, ptr noundef nonnull @__func__.IDASensSStolerances, ptr noundef nonnull @.str, ptr noundef nonnull @.str.24)
  br label %.loopexit

._crit_edge:                                      ; preds = %20, %.preheader
  %25 = getelementptr inbounds nuw i8, ptr %0, i64 236
  store i32 1, ptr %25, align 4, !tbaa !52
  %26 = getelementptr inbounds nuw i8, ptr %0, i64 240
  store double %1, ptr %26, align 8, !tbaa !190
  %27 = getelementptr inbounds nuw i8, ptr %0, i64 1712
  %28 = load i32, ptr %27, align 8, !tbaa !188
  %.not = icmp eq i32 %28, 0
  br i1 %.not, label %29, label %40

29:                                               ; preds = %._crit_edge
  %30 = getelementptr inbounds nuw i8, ptr %0, i64 248
  %31 = sext i32 %17 to i64
  %32 = shl nsw i64 %31, 3
  %33 = tail call noalias ptr @malloc(i64 noundef %32) #15
  store ptr %33, ptr %30, align 8, !tbaa !189
  %34 = shl nsw i64 %31, 2
  %35 = tail call noalias ptr @malloc(i64 noundef %34) #15
  %36 = getelementptr inbounds nuw i8, ptr %0, i64 264
  store ptr %35, ptr %36, align 8, !tbaa !53
  %37 = getelementptr inbounds nuw i8, ptr %0, i64 1656
  %38 = load i64, ptr %37, align 8, !tbaa !64
  %39 = add nsw i64 %38, %31
  store i64 %39, ptr %37, align 8, !tbaa !64
  store i32 1, ptr %27, align 8, !tbaa !188
  br label %40

40:                                               ; preds = %29, %._crit_edge
  br i1 %18, label %.lr.ph47, label %.loopexit

.lr.ph47:                                         ; preds = %40
  %41 = getelementptr inbounds nuw i8, ptr %0, i64 248
  %42 = load ptr, ptr %41, align 8, !tbaa !189
  %43 = getelementptr inbounds nuw i8, ptr %0, i64 264
  %44 = load ptr, ptr %43, align 8, !tbaa !53
  br label %45

45:                                               ; preds = %.lr.ph47, %45
  %indvars.iv49 = phi i64 [ 0, %.lr.ph47 ], [ %indvars.iv.next50, %45 ]
  %46 = getelementptr inbounds nuw double, ptr %2, i64 %indvars.iv49
  %47 = load double, ptr %46, align 8, !tbaa !87
  %48 = getelementptr inbounds nuw double, ptr %42, i64 %indvars.iv49
  store double %47, ptr %48, align 8, !tbaa !87
  %49 = fcmp oeq double %47, 0.000000e+00
  %50 = zext i1 %49 to i32
  %51 = getelementptr inbounds nuw i32, ptr %44, i64 %indvars.iv49
  store i32 %50, ptr %51, align 4, !tbaa !85
  %indvars.iv.next50 = add nuw nsw i64 %indvars.iv49, 1
  %52 = load i32, ptr %16, align 8, !tbaa !167
  %53 = sext i32 %52 to i64
  %54 = icmp slt i64 %indvars.iv.next50, %53
  br i1 %54, label %45, label %.loopexit

.loopexit:                                        ; preds = %45, %40, %24, %19, %13, %10, %5
  %.037 = phi i32 [ -20, %5 ], [ -40, %10 ], [ -22, %13 ], [ -22, %19 ], [ -22, %24 ], [ 0, %40 ], [ 0, %45 ]
  ret i32 %.037
}